Certificate:
    Data:
        Version: 3 (0x2)
        Serial Number: 4359 (0x1107)
        Signature Algorithm: sha1WithRSAEncryption
        Issuer: C=US, ST=NY, L=New York, O=Bloomberg LP, OU=CTO Office, CN=Bloomberg LP CA/emailAddress=open-tech@bloomberg.net
        Validity
            Not Before: Feb 26 06:00:00 2015 GMT
            Not After : Mar  2 06:00:00 2015 GMT
        Subject: C=US, ST=NY, L=New York, O=Bloomberg LP, OU=CTO Office, CN=hackillinois_spring_2015_038/emailAddress=open-tech@bloomberg.net
        Subject Public Key Info:
            Public Key Algorithm: rsaEncryption
            RSA Public Key: (1024 bit)
                Modulus (1024 bit):
                    00:da:91:57:f7:95:e5:74:46:82:40:5d:bd:a4:f9:
                    7a:32:0e:5f:8d:e9:fb:95:3b:2a:37:88:f6:76:a0:
                    ea:a4:e4:58:26:74:b3:bb:b0:2e:21:98:fe:6f:07:
                    f8:7e:4d:7c:0b:4e:7d:d3:98:3d:a9:3c:51:7e:8e:
                    8c:9d:76:11:12:cc:08:cd:82:ae:3d:03:0d:a2:45:
                    c8:93:84:eb:0e:7a:f6:6a:a2:e7:64:79:0e:c4:d4:
                    85:af:be:05:30:2f:74:4c:1c:93:84:36:a0:e4:56:
                    c3:da:7e:da:ba:20:1f:64:20:1c:2b:8a:38:f4:f6:
                    1f:99:63:a9:d2:f4:8c:c2:c9
                Exponent: 65537 (0x10001)
        X509v3 extensions:
            X509v3 Basic Constraints: 
                CA:FALSE
            Netscape Comment: 
                Easy-RSA Generated Certificate
            X509v3 Subject Key Identifier: 
                B9:89:57:BC:E9:7F:C5:A9:BC:79:90:55:77:FE:AC:20:38:4D:63:22
            X509v3 Authority Key Identifier: 
                keyid:F3:21:76:1F:DA:B5:E7:03:FC:ED:D7:71:B8:1C:55:2D:7E:65:5F:14
                DirName:/C=US/ST=NY/L=New York/O=Bloomberg LP/OU=CTO Office/CN=Bloomberg LP CA/emailAddress=open-tech@bloomberg.net
                serial:81:F3:7A:1C:BC:C6:E8:A2

            X509v3 Extended Key Usage: 
                TLS Web Client Authentication
            X509v3 Key Usage: 
                Digital Signature
    Signature Algorithm: sha1WithRSAEncryption
        51:15:05:04:90:b2:b7:36:0f:f9:02:84:6d:1d:73:73:7a:5a:
        5d:81:42:21:f9:c9:9a:81:96:51:9a:42:c6:fe:d2:6a:34:a2:
        a5:ba:df:0a:9e:0a:1a:12:47:0e:90:45:8d:20:4b:35:a6:c5:
        9d:89:03:e4:e6:c2:d5:01:3b:07:63:f1:93:6b:c3:15:bc:0c:
        54:6b:b4:9a:58:18:e3:46:64:ac:85:fa:c5:00:3b:d4:13:c4:
        f3:39:5b:40:cf:63:7b:1f:3a:17:fa:dc:96:25:0c:42:cf:de:
        8d:02:84:37:74:07:68:d8:67:e9:63:b4:7b:6b:43:63:51:58:
        ba:30
-----BEGIN CERTIFICATE-----
MIIEEDCCA3mgAwIBAgICEQcwDQYJKoZIhvcNAQEFBQAwgZsxCzAJBgNVBAYTAlVT
MQswCQYDVQQIEwJOWTERMA8GA1UEBxMITmV3IFlvcmsxFTATBgNVBAoTDEJsb29t
YmVyZyBMUDETMBEGA1UECxMKQ1RPIE9mZmljZTEYMBYGA1UEAxMPQmxvb21iZXJn
IExQIENBMSYwJAYJKoZIhvcNAQkBFhdvcGVuLXRlY2hAYmxvb21iZXJnLm5ldDAe
Fw0xNTAyMjYwNjAwMDBaFw0xNTAzMDIwNjAwMDBaMIGoMQswCQYDVQQGEwJVUzEL
MAkGA1UECBMCTlkxETAPBgNVBAcTCE5ldyBZb3JrMRUwEwYDVQQKEwxCbG9vbWJl
cmcgTFAxEzARBgNVBAsTCkNUTyBPZmZpY2UxJTAjBgNVBAMUHGhhY2tpbGxpbm9p
c19zcHJpbmdfMjAxNV8wMzgxJjAkBgkqhkiG9w0BCQEWF29wZW4tdGVjaEBibG9v
bWJlcmcubmV0MIGfMA0GCSqGSIb3DQEBAQUAA4GNADCBiQKBgQDakVf3leV0RoJA
Xb2k+XoyDl+N6fuVOyo3iPZ2oOqk5FgmdLO7sC4hmP5vB/h+TXwLTn3TmD2pPFF+
joyddhESzAjNgq49Aw2iRciThOsOevZqoudkeQ7E1IWvvgUwL3RMHJOENqDkVsPa
ftq6IB9kIBwrijj09h+ZY6nS9IzCyQIDAQABo4IBUjCCAU4wCQYDVR0TBAIwADAt
BglghkgBhvhCAQ0EIBYeRWFzeS1SU0EgR2VuZXJhdGVkIENlcnRpZmljYXRlMB0G
A1UdDgQWBBS5iVe86X/Fqbx5kFV3/qwgOE1jIjCB0AYDVR0jBIHIMIHFgBTzIXYf
2rXnA/zt13G4HFUtfmVfFKGBoaSBnjCBmzELMAkGA1UEBhMCVVMxCzAJBgNVBAgT
Ak5ZMREwDwYDVQQHEwhOZXcgWW9yazEVMBMGA1UEChMMQmxvb21iZXJnIExQMRMw
EQYDVQQLEwpDVE8gT2ZmaWNlMRgwFgYDVQQDEw9CbG9vbWJlcmcgTFAgQ0ExJjAk
BgkqhkiG9w0BCQEWF29wZW4tdGVjaEBibG9vbWJlcmcubmV0ggkAgfN6HLzG6KIw
EwYDVR0lBAwwCgYIKwYBBQUHAwIwCwYDVR0PBAQDAgeAMA0GCSqGSIb3DQEBBQUA
A4GBAFEVBQSQsrc2D/kChG0dc3N6Wl2BQiH5yZqBllGaQsb+0mo0oqW63wqeChoS
Rw6QRY0gSzWmxZ2JA+TmwtUBOwdj8ZNrwxW8DFRrtJpYGONGZKyF+sUAO9QTxPM5
W0DPY3sfOhf63JYlDELP3o0ChDd0B2jYZ+ljtHtrQ2NRWLow
-----END CERTIFICATE-----
